target datalayout = "e-m:e-p270:32:32-p271:32:32-p272:64:64-i64:64-i128:128-f80:128-n8:16:32:64-S128"
target triple = "x86_64-pc-linux-gnu"

%"class.clang::SourceLocation" = type { i32 }
%"class.clang::FullSourceLoc" = type { %"class.clang::SourceLocation", ptr }

; Function Attrs: mustprogress nounwind uwtable
define linkonce_odr hidden noundef zeroext i1 @_ZNK5clang14SourceLocation8isFileIDEv(ptr noundef nonnull align 4 dereferenceable(4) %0) #0 comdat align 2 {
  %2 = alloca ptr, align 8
  store ptr %0, ptr %2, align 8
  %3 = load ptr, ptr %2, align 8
  %4 = getelementptr inbounds nuw %"class.clang::SourceLocation", ptr %3, i32 0, i32 0
  %5 = load i32, ptr %4, align 4
  %6 = and i32 %5, -2147483648
  %7 = icmp eq i32 %6, 0
  ret i1 %7
}

; Function Attrs: mustprogress nounwind uwtable
define linkonce_odr hidden void @_ZN5clang13FullSourceLocC2ENS_14SourceLocationERKNS_13SourceManagerE(ptr noundef nonnull align 8 dereferenceable(16) %0, i32 %1, ptr noundef nonnull align 8 dereferenceable(696) %2) unnamed_addr #0 comdat align 2 {
  %4 = alloca %"class.clang::SourceLocation", align 4
  %5 = alloca ptr, align 8
  %6 = alloca ptr, align 8
  %7 = getelementptr inbounds nuw %"class.clang::SourceLocation", ptr %4, i32 0, i32 0
  store i32 %1, ptr %7, align 4
  store ptr %0, ptr %5, align 8
  store ptr %2, ptr %6, align 8
  %8 = load ptr, ptr %5, align 8
  call void @llvm.memcpy.p0.p0.i64(ptr align 8 %8, ptr align 4 %4, i64 4, i1 false)
  %9 = getelementptr inbounds nuw %"class.clang::FullSourceLoc", ptr %8, i32 0, i32 1
  %10 = load ptr, ptr %6, align 8
  store ptr %10, ptr %9, align 8
  ret void
}

; Function Attrs: mustprogress nounwind uwtable
define linkonce_odr hidden i32 @_ZNK5clang13SourceManager15getExpansionLocENS_14SourceLocationE(ptr noundef nonnull align 8 dereferenceable(696) %0, i32 %1) #0 comdat align 2 {
  %3 = alloca %"class.clang::SourceLocation", align 4
  %4 = alloca %"class.clang::SourceLocation", align 4
  %5 = alloca ptr, align 8
  %6 = alloca %"class.clang::SourceLocation", align 4
  %7 = getelementptr inbounds nuw %"class.clang::SourceLocation", ptr %4, i32 0, i32 0
  store i32 %1, ptr %7, align 4
  store ptr %0, ptr %5, align 8
  %8 = load ptr, ptr %5, align 8
  %9 = call noundef zeroext i1 @_ZNK5clang14SourceLocation8isFileIDEv(ptr noundef nonnull align 4 dereferenceable(4) %4)
  br i1 %9, label %10, label %11

10:                                               ; preds = %2
  call void @llvm.memcpy.p0.p0.i64(ptr align 4 %3, ptr align 4 %4, i64 4, i1 false)
  br label %16

11:                                               ; preds = %2
  call void @llvm.memcpy.p0.p0.i64(ptr align 4 %6, ptr align 4 %4, i64 4, i1 false)
  %12 = getelementptr inbounds nuw %"class.clang::SourceLocation", ptr %6, i32 0, i32 0
  %13 = load i32, ptr %12, align 4
  %14 = call i32 @_ZNK5clang13SourceManager23getExpansionLocSlowCaseENS_14SourceLocationE(ptr noundef nonnull align 8 dereferenceable(696) %8, i32 %13)
  %15 = getelementptr inbounds nuw %"class.clang::SourceLocation", ptr %3, i32 0, i32 0
  store i32 %14, ptr %15, align 4
  br label %16

16:                                               ; preds = %11, %10
  %17 = getelementptr inbounds nuw %"class.clang::SourceLocation", ptr %3, i32 0, i32 0
  %18 = load i32, ptr %17, align 4
  ret i32 %18
}

; Function Attrs: mustprogress nounwind uwtable
define dso_local { i32, ptr } @_ZNK5clang13FullSourceLoc15getExpansionLocEv(ptr noundef nonnull align 8 dereferenceable(16) %0) #0 align 2 {
  %2 = alloca %"class.clang::FullSourceLoc", align 8
  %3 = alloca ptr, align 8
  %4 = alloca %"class.clang::SourceLocation", align 4
  %5 = alloca %"class.clang::SourceLocation", align 4
  store ptr %0, ptr %3, align 8
  %6 = load ptr, ptr %3, align 8
  %7 = getelementptr inbounds nuw %"class.clang::FullSourceLoc", ptr %6, i32 0, i32 1
  %8 = load ptr, ptr %7, align 8
  call void @llvm.memcpy.p0.p0.i64(ptr align 4 %5, ptr align 8 %6, i64 4, i1 false)
  %9 = getelementptr inbounds nuw %"class.clang::SourceLocation", ptr %5, i32 0, i32 0
  %10 = load i32, ptr %9, align 4
  %11 = call i32 @_ZNK5clang13SourceManager15getExpansionLocENS_14SourceLocationE(ptr noundef nonnull align 8 dereferenceable(696) %8, i32 %10)
  %12 = getelementptr inbounds nuw %"class.clang::SourceLocation", ptr %4, i32 0, i32 0
  store i32 %11, ptr %12, align 4
  %13 = getelementptr inbounds nuw %"class.clang::FullSourceLoc", ptr %6, i32 0, i32 1
  %14 = load ptr, ptr %13, align 8
  %15 = getelementptr inbounds nuw %"class.clang::SourceLocation", ptr %4, i32 0, i32 0
  %16 = load i32, ptr %15, align 4
  call void @_ZN5clang13FullSourceLocC2ENS_14SourceLocationERKNS_13SourceManagerE(ptr noundef nonnull align 8 dereferenceable(16) %2, i32 %16, ptr noundef nonnull align 8 dereferenceable(696) %14)
  %17 = load { i32, ptr }, ptr %2, align 8
  ret { i32, ptr } %17
}