; Function Attrs: mustprogress nounwind uwtable
define dso_local { i32, ptr } @_ZNK5clang13FullSourceLoc15getExpansionLocEv(ptr nocapture noundef nonnull readonly align 8 dereferenceable(16) %0) local_unnamed_addr #0 align 2 {
  %2 = getelementptr inbounds nuw i8, ptr %0, i64 8
  %.sroa.0.0.copyload = load i32, ptr %0, align 8
  %3 = icmp sgt i32 %.sroa.0.0.copyload, -1
  br i1 %3, label %_ZNK5clang13SourceManager15getExpansionLocENS_14SourceLocationE.exit, label %4

4:                                                ; preds = %1
  %5 = load ptr, ptr %2, align 8
  %6 = tail call i32 @_ZNK5clang13SourceManager23getExpansionLocSlowCaseENS_14SourceLocationE(ptr noundef nonnull align 8 dereferenceable(696) %5, i32 %.sroa.0.0.copyload) #10
  br label %_ZNK5clang13SourceManager15getExpansionLocENS_14SourceLocationE.exit

_ZNK5clang13SourceManager15getExpansionLocENS_14SourceLocationE.exit: ; preds = %1, %4
  %.sroa.01.0.i = phi i32 [ %6, %4 ], [ %.sroa.0.0.copyload, %1 ]
  %7 = load ptr, ptr %2, align 8
  %.fca.0.insert = insertvalue { i32, ptr } poison, i32 %.sroa.01.0.i, 0
  %.fca.1.insert = insertvalue { i32, ptr } %.fca.0.insert, ptr %7, 1
  ret { i32, ptr } %.fca.1.insert
}